target datalayout = "e-m:e-p270:32:32-p271:32:32-p272:64:64-i64:64-i128:128-f80:128-n8:16:32:64-S128"
target triple = "x86_64-pc-linux-gnu"

%"class.cv::Size_" = type { i32, i32 }
%"class.cv::detail::tracking::feature::CvFeatureEvaluator" = type { ptr, i32, i32, i32, %"class.cv::Size_", ptr, %"class.cv::Mat" }
%"class.cv::Mat" = type { i32, i32, i32, i32, ptr, ptr, ptr, ptr, ptr, ptr, %"struct.cv::MatSize", %"struct.cv::MatStep" }
%"struct.cv::MatSize" = type { ptr }
%"struct.cv::MatStep" = type { ptr, [2 x i64] }
%"class.cv::detail::tracking::feature::CvHaarEvaluator" = type { %"class.cv::detail::tracking::feature::CvFeatureEvaluator", i8, %"class.cv::Mat", %"class.std::vector", %"class.cv::Mat" }
%"class.std::vector" = type { %"struct.std::_Vector_base" }
%"struct.std::_Vector_base" = type { %"struct.std::_Vector_base<cv::detail::tracking::feature::CvHaarEvaluator::FeatureHaar, std::allocator<cv::detail::tracking::feature::CvHaarEvaluator::FeatureHaar>>::_Vector_impl" }
%"struct.std::_Vector_base<cv::detail::tracking::feature::CvHaarEvaluator::FeatureHaar, std::allocator<cv::detail::tracking::feature::CvHaarEvaluator::FeatureHaar>>::_Vector_impl" = type { %"struct.std::_Vector_base<cv::detail::tracking::feature::CvHaarEvaluator::FeatureHaar, std::allocator<cv::detail::tracking::feature::CvHaarEvaluator::FeatureHaar>>::_Vector_impl_data" }
%"struct.std::_Vector_base<cv::detail::tracking::feature::CvHaarEvaluator::FeatureHaar, std::allocator<cv::detail::tracking::feature::CvHaarEvaluator::FeatureHaar>>::_Vector_impl_data" = type { ptr, ptr, ptr }
%"class.cv::detail::tracking::feature::CvHaarEvaluator::FeatureHaar" = type { i32, i32, %"class.std::vector.8", float, float, %"class.std::vector.13", %"class.cv::Size_", %"class.cv::Size_", float, float, %"class.std::vector.13", %"class.std::vector.8" }
%"class.std::vector.13" = type { %"struct.std::_Vector_base.14" }
%"struct.std::_Vector_base.14" = type { %"struct.std::_Vector_base<cv::Rect_<int>, std::allocator<cv::Rect_<int>>>::_Vector_impl" }
%"struct.std::_Vector_base<cv::Rect_<int>, std::allocator<cv::Rect_<int>>>::_Vector_impl" = type { %"struct.std::_Vector_base<cv::Rect_<int>, std::allocator<cv::Rect_<int>>>::_Vector_impl_data" }
%"struct.std::_Vector_base<cv::Rect_<int>, std::allocator<cv::Rect_<int>>>::_Vector_impl_data" = type { ptr, ptr, ptr }
%"class.std::vector.8" = type { %"struct.std::_Vector_base.9" }
%"struct.std::_Vector_base.9" = type { %"struct.std::_Vector_base<float, std::allocator<float>>::_Vector_impl" }
%"struct.std::_Vector_base<float, std::allocator<float>>::_Vector_impl" = type { %"struct.std::_Vector_base<float, std::allocator<float>>::_Vector_impl_data" }
%"struct.std::_Vector_base<float, std::allocator<float>>::_Vector_impl_data" = type { ptr, ptr, ptr }
%"class.__gnu_cxx::__normal_iterator" = type { ptr }

@_ZN2cv6detail8tracking7feature15CvHaarEvaluator11FeatureHaarC1ENS_5Size_IiEE = hidden unnamed_addr alias void (ptr, i64), ptr @_ZN2cv6detail8tracking7feature15CvHaarEvaluator11FeatureHaarC2ENS_5Size_IiEE

; Function Attrs: mustprogress nounwind uwtable
define linkonce_odr hidden void @_ZN9__gnu_cxx17__normal_iteratorIPN2cv6detail8tracking7feature15CvHaarEvaluator11FeatureHaarESt6vectorIS6_SaIS6_EEEC2ERKS7_(ptr noundef nonnull align 8 dereferenceable(8) %0, ptr noundef nonnull align 8 dereferenceable(8) %1) unnamed_addr #0 comdat align 2 {
  %3 = alloca ptr, align 8
  %4 = alloca ptr, align 8
  store ptr %0, ptr %3, align 8, !tbaa !213
  store ptr %1, ptr %4, align 8, !tbaa !216
  %5 = load ptr, ptr %3, align 8
  %6 = getelementptr inbounds nuw %"class.__gnu_cxx::__normal_iterator", ptr %5, i32 0, i32 0
  %7 = load ptr, ptr %4, align 8, !tbaa !216
  %8 = load ptr, ptr %7, align 8, !tbaa !83
  store ptr %8, ptr %6, align 8, !tbaa !218
  ret void
}

; Function Attrs: mustprogress uwtable
define linkonce_odr hidden void @_ZNSt15__new_allocatorIN2cv6detail8tracking7feature15CvHaarEvaluator11FeatureHaarEE9constructIS5_JRKS5_EEEvPT_DpOT0_(ptr noundef nonnull align 1 dereferenceable(1) %0, ptr noundef %1, ptr noundef nonnull align 8 dereferenceable(136) %2) #1 comdat align 2 {
  %4 = alloca ptr, align 8
  %5 = alloca ptr, align 8
  %6 = alloca ptr, align 8
  store ptr %0, ptr %4, align 8, !tbaa !178
  store ptr %1, ptr %5, align 8, !tbaa !83
  store ptr %2, ptr %6, align 8, !tbaa !83
  %7 = load ptr, ptr %5, align 8, !tbaa !83
  %8 = load ptr, ptr %6, align 8, !tbaa !83
  call void @_ZN2cv6detail8tracking7feature15CvHaarEvaluator11FeatureHaarC2ERKS4_(ptr noundef nonnull align 8 dereferenceable(136) %7, ptr noundef nonnull align 8 dereferenceable(136) %8)
  ret void
}

; Function Attrs: mustprogress nounwind uwtable
define linkonce_odr hidden ptr @_ZNSt6vectorIN2cv6detail8tracking7feature15CvHaarEvaluator11FeatureHaarESaIS5_EE3endEv(ptr noundef nonnull align 8 dereferenceable(24) %0) #0 comdat align 2 {
  %2 = alloca %"class.__gnu_cxx::__normal_iterator", align 8
  %3 = alloca ptr, align 8
  store ptr %0, ptr %3, align 8, !tbaa !81
  %4 = load ptr, ptr %3, align 8
  %5 = getelementptr inbounds nuw %"struct.std::_Vector_base", ptr %4, i32 0, i32 0
  %6 = getelementptr inbounds nuw %"struct.std::_Vector_base<cv::detail::tracking::feature::CvHaarEvaluator::FeatureHaar, std::allocator<cv::detail::tracking::feature::CvHaarEvaluator::FeatureHaar>>::_Vector_impl_data", ptr %5, i32 0, i32 1
  call void @_ZN9__gnu_cxx17__normal_iteratorIPN2cv6detail8tracking7feature15CvHaarEvaluator11FeatureHaarESt6vectorIS6_SaIS6_EEEC2ERKS7_(ptr noundef nonnull align 8 dereferenceable(8) %2, ptr noundef nonnull align 8 dereferenceable(8) %6) #17
  %7 = getelementptr inbounds nuw %"class.__gnu_cxx::__normal_iterator", ptr %2, i32 0, i32 0
  %8 = load ptr, ptr %7, align 8
  ret ptr %8
}

; Function Attrs: mustprogress uwtable
define linkonce_odr hidden void @_ZNSt16allocator_traitsISaIN2cv6detail8tracking7feature15CvHaarEvaluator11FeatureHaarEEE9constructIS5_JRKS5_EEEvRS6_PT_DpOT0_(ptr noundef nonnull align 1 dereferenceable(1) %0, ptr noundef %1, ptr noundef nonnull align 8 dereferenceable(136) %2) #1 comdat align 2 {
  %4 = alloca ptr, align 8
  %5 = alloca ptr, align 8
  %6 = alloca ptr, align 8
  store ptr %0, ptr %4, align 8, !tbaa !173
  store ptr %1, ptr %5, align 8, !tbaa !83
  store ptr %2, ptr %6, align 8, !tbaa !83
  %7 = load ptr, ptr %4, align 8, !tbaa !173
  %8 = load ptr, ptr %5, align 8, !tbaa !83
  %9 = load ptr, ptr %6, align 8, !tbaa !83
  call void @_ZNSt15__new_allocatorIN2cv6detail8tracking7feature15CvHaarEvaluator11FeatureHaarEE9constructIS5_JRKS5_EEEvPT_DpOT0_(ptr noundef nonnull align 1 dereferenceable(1) %7, ptr noundef %8, ptr noundef nonnull align 8 dereferenceable(136) %9)
  ret void
}

; Function Attrs: mustprogress uwtable
define linkonce_odr hidden void @_ZNSt6vectorIN2cv6detail8tracking7feature15CvHaarEvaluator11FeatureHaarESaIS5_EE9push_backERKS5_(ptr noundef nonnull align 8 dereferenceable(24) %0, ptr noundef nonnull align 8 dereferenceable(136) %1) #1 comdat align 2 {
  %3 = alloca ptr, align 8
  %4 = alloca ptr, align 8
  %5 = alloca %"class.__gnu_cxx::__normal_iterator", align 8
  store ptr %0, ptr %3, align 8, !tbaa !81
  store ptr %1, ptr %4, align 8, !tbaa !83
  %6 = load ptr, ptr %3, align 8
  %7 = getelementptr inbounds nuw %"struct.std::_Vector_base", ptr %6, i32 0, i32 0
  %8 = getelementptr inbounds nuw %"struct.std::_Vector_base<cv::detail::tracking::feature::CvHaarEvaluator::FeatureHaar, std::allocator<cv::detail::tracking::feature::CvHaarEvaluator::FeatureHaar>>::_Vector_impl_data", ptr %7, i32 0, i32 1
  %9 = load ptr, ptr %8, align 8, !tbaa !84
  %10 = getelementptr inbounds nuw %"struct.std::_Vector_base", ptr %6, i32 0, i32 0
  %11 = getelementptr inbounds nuw %"struct.std::_Vector_base<cv::detail::tracking::feature::CvHaarEvaluator::FeatureHaar, std::allocator<cv::detail::tracking::feature::CvHaarEvaluator::FeatureHaar>>::_Vector_impl_data", ptr %10, i32 0, i32 2
  %12 = load ptr, ptr %11, align 8, !tbaa !85
  %13 = icmp ne ptr %9, %12
  br i1 %13, label %14, label %24

14:                                               ; preds = %2
  %15 = getelementptr inbounds nuw %"struct.std::_Vector_base", ptr %6, i32 0, i32 0
  %16 = getelementptr inbounds nuw %"struct.std::_Vector_base", ptr %6, i32 0, i32 0
  %17 = getelementptr inbounds nuw %"struct.std::_Vector_base<cv::detail::tracking::feature::CvHaarEvaluator::FeatureHaar, std::allocator<cv::detail::tracking::feature::CvHaarEvaluator::FeatureHaar>>::_Vector_impl_data", ptr %16, i32 0, i32 1
  %18 = load ptr, ptr %17, align 8, !tbaa !84
  %19 = load ptr, ptr %4, align 8, !tbaa !83
  call void @_ZNSt16allocator_traitsISaIN2cv6detail8tracking7feature15CvHaarEvaluator11FeatureHaarEEE9constructIS5_JRKS5_EEEvRS6_PT_DpOT0_(ptr noundef nonnull align 1 dereferenceable(1) %15, ptr noundef %18, ptr noundef nonnull align 8 dereferenceable(136) %19)
  %20 = getelementptr inbounds nuw %"struct.std::_Vector_base", ptr %6, i32 0, i32 0
  %21 = getelementptr inbounds nuw %"struct.std::_Vector_base<cv::detail::tracking::feature::CvHaarEvaluator::FeatureHaar, std::allocator<cv::detail::tracking::feature::CvHaarEvaluator::FeatureHaar>>::_Vector_impl_data", ptr %20, i32 0, i32 1
  %22 = load ptr, ptr %21, align 8, !tbaa !84
  %23 = getelementptr inbounds nuw %"class.cv::detail::tracking::feature::CvHaarEvaluator::FeatureHaar", ptr %22, i32 1
  store ptr %23, ptr %21, align 8, !tbaa !84
  br label %30

24:                                               ; preds = %2
  %25 = call ptr @_ZNSt6vectorIN2cv6detail8tracking7feature15CvHaarEvaluator11FeatureHaarESaIS5_EE3endEv(ptr noundef nonnull align 8 dereferenceable(24) %6) #17
  %26 = getelementptr inbounds nuw %"class.__gnu_cxx::__normal_iterator", ptr %5, i32 0, i32 0
  store ptr %25, ptr %26, align 8
  %27 = load ptr, ptr %4, align 8, !tbaa !83
  %28 = getelementptr inbounds nuw %"class.__gnu_cxx::__normal_iterator", ptr %5, i32 0, i32 0
  %29 = load ptr, ptr %28, align 8
  call void @_ZNSt6vectorIN2cv6detail8tracking7feature15CvHaarEvaluator11FeatureHaarESaIS5_EE17_M_realloc_insertIJRKS5_EEEvN9__gnu_cxx17__normal_iteratorIPS5_S7_EEDpOT_(ptr noundef nonnull align 8 dereferenceable(24) %6, ptr %29, ptr noundef nonnull align 8 dereferenceable(136) %27)
  br label %30

30:                                               ; preds = %24, %14
  ret void
}

; Function Attrs: inlinehint mustprogress nounwind uwtable
define linkonce_odr hidden void @_ZN2cv5Size_IiEC2Eii(ptr noundef nonnull align 4 dereferenceable(8) %0, i32 noundef %1, i32 noundef %2) unnamed_addr #6 comdat align 2 {
  %4 = alloca ptr, align 8
  %5 = alloca i32, align 4
  %6 = alloca i32, align 4
  store ptr %0, ptr %4, align 8, !tbaa !79
  store i32 %1, ptr %5, align 4, !tbaa !20
  store i32 %2, ptr %6, align 4, !tbaa !20
  %7 = load ptr, ptr %4, align 8
  %8 = getelementptr inbounds nuw %"class.cv::Size_", ptr %7, i32 0, i32 0
  %9 = load i32, ptr %5, align 4, !tbaa !20
  store i32 %9, ptr %8, align 4, !tbaa !60
  %10 = getelementptr inbounds nuw %"class.cv::Size_", ptr %7, i32 0, i32 1
  %11 = load i32, ptr %6, align 4, !tbaa !20
  store i32 %11, ptr %10, align 4, !tbaa !61
  ret void
}

; Function Attrs: mustprogress uwtable
define hidden void @_ZN2cv6detail8tracking7feature15CvHaarEvaluator16generateFeaturesEi(ptr noundef nonnull align 8 dereferenceable(360) %0, i32 noundef %1) unnamed_addr #1 align 2 personality ptr @__gxx_personality_v0 {
  %3 = alloca ptr, align 8
  %4 = alloca i32, align 4
  %5 = alloca i32, align 4
  %6 = alloca %"class.cv::detail::tracking::feature::CvHaarEvaluator::FeatureHaar", align 8
  %7 = alloca %"class.cv::Size_", align 4
  %8 = alloca ptr, align 8
  %9 = alloca i32, align 4
  store ptr %0, ptr %3, align 8, !tbaa !58
  store i32 %1, ptr %4, align 4, !tbaa !20
  %10 = load ptr, ptr %3, align 8
  call void @llvm.lifetime.start.p0(i64 4, ptr %5) #17
  store i32 0, ptr %5, align 4, !tbaa !20
  br label %11

11:                                               ; preds = %26, %2
  %12 = load i32, ptr %5, align 4, !tbaa !20
  %13 = load i32, ptr %4, align 4, !tbaa !20
  %14 = icmp slt i32 %12, %13
  br i1 %14, label %16, label %15

15:                                               ; preds = %11
  call void @llvm.lifetime.end.p0(i64 4, ptr %5) #17
  br label %33

16:                                               ; preds = %11
  call void @llvm.lifetime.start.p0(i64 136, ptr %6) #17
  %17 = getelementptr inbounds nuw %"class.cv::detail::tracking::feature::CvFeatureEvaluator", ptr %10, i32 0, i32 4
  %18 = getelementptr inbounds nuw %"class.cv::Size_", ptr %17, i32 0, i32 0
  %19 = load i32, ptr %18, align 4, !tbaa !43
  %20 = getelementptr inbounds nuw %"class.cv::detail::tracking::feature::CvFeatureEvaluator", ptr %10, i32 0, i32 4
  %21 = getelementptr inbounds nuw %"class.cv::Size_", ptr %20, i32 0, i32 1
  %22 = load i32, ptr %21, align 4, !tbaa !45
  call void @_ZN2cv5Size_IiEC2Eii(ptr noundef nonnull align 4 dereferenceable(8) %7, i32 noundef %19, i32 noundef %22)
  %23 = load i64, ptr %7, align 4
  call void @_ZN2cv6detail8tracking7feature15CvHaarEvaluator11FeatureHaarC1ENS_5Size_IiEE(ptr noundef nonnull align 8 dereferenceable(136) %6, i64 %23)
  %24 = getelementptr inbounds nuw %"class.cv::detail::tracking::feature::CvHaarEvaluator", ptr %10, i32 0, i32 3
  invoke void @_ZNSt6vectorIN2cv6detail8tracking7feature15CvHaarEvaluator11FeatureHaarESaIS5_EE9push_backERKS5_(ptr noundef nonnull align 8 dereferenceable(24) %24, ptr noundef nonnull align 8 dereferenceable(136) %6)
          to label %25 unwind label %29

25:                                               ; preds = %16
  call void @_ZN2cv6detail8tracking7feature15CvHaarEvaluator11FeatureHaarD2Ev(ptr noundef nonnull align 8 dereferenceable(136) %6) #17
  call void @llvm.lifetime.end.p0(i64 136, ptr %6) #17
  br label %26

26:                                               ; preds = %25
  %27 = load i32, ptr %5, align 4, !tbaa !20
  %28 = add nsw i32 %27, 1
  store i32 %28, ptr %5, align 4, !tbaa !20
  br label %11, !llvm.loop !77

29:                                               ; preds = %16
  %30 = landingpad { ptr, i32 }
          cleanup
  %31 = extractvalue { ptr, i32 } %30, 0
  store ptr %31, ptr %8, align 8
  %32 = extractvalue { ptr, i32 } %30, 1
  store i32 %32, ptr %9, align 4
  call void @_ZN2cv6detail8tracking7feature15CvHaarEvaluator11FeatureHaarD2Ev(ptr noundef nonnull align 8 dereferenceable(136) %6) #17
  call void @llvm.lifetime.end.p0(i64 136, ptr %6) #17
  call void @llvm.lifetime.end.p0(i64 4, ptr %5) #17
  br label %34

33:                                               ; preds = %15
  ret void

34:                                               ; preds = %29
  %35 = load ptr, ptr %8, align 8
  %36 = load i32, ptr %9, align 4
  %37 = insertvalue { ptr, i32 } poison, ptr %35, 0
  %38 = insertvalue { ptr, i32 } %37, i32 %36, 1
  resume { ptr, i32 } %38
}